; Function Attrs: mustprogress uwtable
define hidden void @_ZN11upolynomial12core_manager3negEjPK3mpzR7svectorIS1_jE(ptr noundef nonnull align 8 dereferenceable(272) %0, i32 noundef %1, ptr noundef %2, ptr noundef nonnull align 8 captures(none) dereferenceable(8) %3) local_unnamed_addr #3 align 2 {
  %5 = getelementptr inbounds nuw i8, ptr %0, i64 144
  tail call void @_ZN11upolynomial12core_manager8neg_coreEjPK3mpzR7svectorIS1_jE(ptr noundef nonnull align 8 dereferenceable(272) %0, i32 noundef %1, ptr noundef %2, ptr noundef nonnull align 8 dereferenceable(8) %5)
  %6 = load ptr, ptr %3, align 8, !tbaa !38
  %7 = load ptr, ptr %5, align 8, !tbaa !38
  store ptr %7, ptr %3, align 8, !tbaa !38
  store ptr %6, ptr %5, align 8, !tbaa !38
  ret void
}